target datalayout = "e-m:e-p270:32:32-p271:32:32-p272:64:64-i64:64-i128:128-f80:128-n8:16:32:64-S128"
target triple = "x86_64-pc-linux-gnu"

%struct.access_mask_info = type { ptr, ptr, ptr, ptr }
%struct._dcerpc_info = type { ptr, i32, i64, i8, i8, i8, i32, i32, i32, i32, i32, i32, i32, i32, ptr, ptr, ptr, ptr, %struct.anon }
%struct.anon = type { i8, ptr, ptr, ptr, i8 }

@hf_iremotewinspool_sec_desc_buf_len = internal global i32 0, align 4
@spoolss_printer_access_mask_info = external global %struct.access_mask_info, align 8

; Function Attrs: null_pointer_is_valid sspstrong uwtable
define internal i32 @iremotewinspool_dissect_sec_desc_buf(ptr noundef %0, i32 noundef %1, ptr noundef %2, ptr noundef %3, ptr noundef %4, ptr noundef %5) #0 {
  %7 = alloca i32, align 4
  %8 = alloca ptr, align 8
  %9 = alloca i32, align 4
  %10 = alloca ptr, align 8
  %11 = alloca ptr, align 8
  %12 = alloca ptr, align 8
  %13 = alloca ptr, align 8
  %14 = alloca i32, align 4
  %15 = alloca i32, align 4
  store ptr %0, ptr %8, align 8
  store i32 %1, ptr %9, align 4
  store ptr %2, ptr %10, align 8
  store ptr %3, ptr %11, align 8
  store ptr %4, ptr %12, align 8
  store ptr %5, ptr %13, align 8
  call void @llvm.lifetime.start.p0(i64 4, ptr %14) #3
  %16 = load ptr, ptr %12, align 8
  %17 = getelementptr inbounds nuw %struct._dcerpc_info, ptr %16, i32 0, i32 4
  %18 = load i8, ptr %17, align 1, !range !6, !noundef !7
  %19 = trunc i8 %18 to i1
  br i1 %19, label %20, label %22

20:                                               ; preds = %6
  %21 = load i32, ptr %9, align 4
  store i32 %21, ptr %7, align 4
  store i32 1, ptr %15, align 4
  br label %42

22:                                               ; preds = %6
  %23 = load ptr, ptr %8, align 8
  %24 = load i32, ptr %9, align 4
  %25 = load ptr, ptr %10, align 8
  %26 = load ptr, ptr %11, align 8
  %27 = load ptr, ptr %12, align 8
  %28 = load ptr, ptr %13, align 8
  %29 = load i32, ptr @hf_iremotewinspool_sec_desc_buf_len, align 4
  %30 = call i32 @dissect_ndr_uint32(ptr noundef %23, i32 noundef %24, ptr noundef %25, ptr noundef %26, ptr noundef %27, ptr noundef %28, i32 noundef %29, ptr noundef %14)
  store i32 %30, ptr %9, align 4
  %31 = load ptr, ptr %8, align 8
  %32 = load i32, ptr %9, align 4
  %33 = load ptr, ptr %10, align 8
  %34 = load ptr, ptr %11, align 8
  %35 = load ptr, ptr %13, align 8
  %36 = load i32, ptr %14, align 4
  %37 = call i32 @dissect_nt_sec_desc(ptr noundef %31, i32 noundef %32, ptr noundef %33, ptr noundef %34, ptr noundef %35, i1 noundef zeroext true, i32 noundef %36, ptr noundef @spoolss_printer_access_mask_info)
  %38 = load i32, ptr %14, align 4
  %39 = load i32, ptr %9, align 4
  %40 = add i32 %39, %38
  store i32 %40, ptr %9, align 4
  %41 = load i32, ptr %9, align 4
  store i32 %41, ptr %7, align 4
  store i32 1, ptr %15, align 4
  br label %42

42:                                               ; preds = %22, %20
  call void @llvm.lifetime.end.p0(i64 4, ptr %14) #3
  %43 = load i32, ptr %7, align 4
  ret i32 %43
}

; Function Attrs: null_pointer_is_valid sspstrong uwtable
define internal i32 @iremotewinspool_dissect_element_winspool_AsyncSetPrinter_pSecurityContainer_(ptr noundef %0, i32 noundef %1, ptr noundef %2, ptr noundef %3, ptr noundef %4, ptr noundef %5) #0 {
  %7 = alloca ptr, align 8
  %8 = alloca i32, align 4
  %9 = alloca ptr, align 8
  %10 = alloca ptr, align 8
  %11 = alloca ptr, align 8
  %12 = alloca ptr, align 8
  store ptr %0, ptr %7, align 8
  store i32 %1, ptr %8, align 4
  store ptr %2, ptr %9, align 8
  store ptr %3, ptr %10, align 8
  store ptr %4, ptr %11, align 8
  store ptr %5, ptr %12, align 8
  %13 = load ptr, ptr %7, align 8
  %14 = load i32, ptr %8, align 4
  %15 = load ptr, ptr %9, align 8
  %16 = load ptr, ptr %10, align 8
  %17 = load ptr, ptr %11, align 8
  %18 = load ptr, ptr %12, align 8
  %19 = call i32 @iremotewinspool_dissect_sec_desc_buf(ptr noundef %13, i32 noundef %14, ptr noundef %15, ptr noundef %16, ptr noundef %17, ptr noundef %18)
  store i32 %19, ptr %8, align 4
  %20 = load i32, ptr %8, align 4
  ret i32 %20
}